Certificate:
    Data:
        Version: 3 (0x2)
        Serial Number: 1 (0x1)
        Signature Algorithm: md5WithRSAEncryption
        Issuer: C=US, ST=Washington, L=Bellevue, O=Acme Authority Inc., OU=Production, CN=www.acmeca.com/emailAddress=info@acmeca.com
        Validity
            Not Before: Apr  8 00:19:16 2009 GMT
            Not After : Apr  8 00:19:16 2010 GMT
        Subject: C=US, ST=Washington, O=Embedthis Software LLC, OU=Development, CN=localhost/emailAddress=admin@embedthis.com
        Subject Public Key Info:
            Public Key Algorithm: rsaEncryption
            RSA Public Key: (1024 bit)
                Modulus (1024 bit):
                    00:b4:bf:10:f3:9e:6e:b7:17:cc:cb:3f:17:6d:e4:
                    e1:e6:02:74:46:9d:23:fb:47:c1:f3:8d:d8:63:d6:
                    6c:f2:54:f1:e6:62:ee:5d:08:5d:cb:3c:aa:2a:b8:
                    80:ab:8f:9c:cf:e6:c5:61:e0:99:f0:d4:f5:88:c5:
                    e6:dc:d7:46:1d:e8:07:96:46:ab:bf:fb:90:6a:e5:
                    3f:e3:37:b9:a6:25:84:37:c1:d0:b5:f9:26:ed:19:
                    b9:04:0d:33:42:fa:4a:e2:1b:a1:98:5f:9a:8c:9b:
                    a1:60:04:13:3f:91:97:d0:31:65:27:0e:20:3b:10:
                    e4:73:58:e2:40:f6:45:ed:8f
                Exponent: 65537 (0x10001)
        X509v3 extensions:
            X509v3 Basic Constraints: 
                CA:FALSE
    Signature Algorithm: md5WithRSAEncryption
        01:2b:68:a2:36:c2:e9:e0:f3:28:6d:53:01:87:37:88:b5:d1:
        46:4c:65:ab:b9:a1:1d:fd:84:7f:c1:14:a1:d0:72:6f:da:b7:
        48:af:24:1a:42:5e:0d:85:a5:88:7d:bc:27:33:15:17:bd:75:
        e3:ee:19:52:f0:38:37:f1:0c:35:c6:b8:ed:2f:4e:8c:ab:41:
        a2:85:da:33:7e:74:09:d5:19:c3:f5:75:ca:60:dd:bf:85:e1:
        66:99:af:b0:73:48:22:d7:41:01:ce:f9:35:e1:f1:6a:99:cd:
        4b:f5:62:bc:c4:d8:fe:5a:6a:3c:a4:1a:8b:e0:a1:f4:9d:64:
        73:56
-----BEGIN CERTIFICATE-----
MIICtzCCAiCgAwIBAgIBATANBgkqhkiG9w0BAQQFADCBoTELMAkGA1UEBhMCVVMx
EzARBgNVBAgTCldhc2hpbmd0b24xETAPBgNVBAcTCEJlbGxldnVlMRwwGgYDVQQK
ExNBY21lIEF1dGhvcml0eSBJbmMuMRMwEQYDVQQLEwpQcm9kdWN0aW9uMRcwFQYD
VQQDEw53d3cuYWNtZWNhLmNvbTEeMBwGCSqGSIb3DQEJARYPaW5mb0BhY21lY2Eu
Y29tMB4XDTA5MDQwODAwMTkxNloXDTEwMDQwODAwMTkxNlowgZExCzAJBgNVBAYT
AlVTMRMwEQYDVQQIEwpXYXNoaW5ndG9uMR8wHQYDVQQKExZFbWJlZHRoaXMgU29m
dHdhcmUgTExDMRQwEgYDVQQLEwtEZXZlbG9wbWVudDESMBAGA1UEAxMJbG9jYWxo
b3N0MSIwIAYJKoZIhvcNAQkBFhNhZG1pbkBlbWJlZHRoaXMuY29tMIGfMA0GCSqG
SIb3DQEBAQUAA4GNADCBiQKBgQC0vxDznm63F8zLPxdt5OHmAnRGnSP7R8Hzjdhj
1mzyVPHmYu5dCF3LPKoquICrj5zP5sVh4Jnw1PWIxebc10Yd6AeWRqu/+5Bq5T/j
N7mmJYQ3wdC1+SbtGbkEDTNC+kriG6GYX5qMm6FgBBM/kZfQMWUnDiA7EORzWOJA
9kXtjwIDAQABow0wCzAJBgNVHRMEAjAAMA0GCSqGSIb3DQEBBAUAA4GBAAEraKI2
wung8yhtUwGHN4i10UZMZau5oR39hH/BFKHQcm/at0ivJBpCXg2FpYh9vCczFRe9
dePuGVLwODfxDDXGuO0vToyrQaKF2jN+dAnVGcP1dcpg3b+F4WaZr7BzSCLXQQHO
+TXh8WqZzUv1YrzE2P5aajykGovgofSdZHNW
-----END CERTIFICATE-----
